target datalayout = "e-m:e-p270:32:32-p271:32:32-p272:64:64-i64:64-i128:128-f80:128-n8:16:32:64-S128"
target triple = "x86_64-pc-linux-gnu"

%struct.Qureg = type { i32, i32, i32, i64, i64, i32, i32, %struct.ComplexArray, %struct.ComplexArray, %struct.ComplexArray, ptr, ptr, ptr, ptr, ptr, ptr }
%struct.ComplexArray = type { ptr, ptr }

; Function Attrs: nounwind uwtable
define void @densmatr_initPureState(ptr noundef byval(%struct.Qureg) align 8 %0, ptr noundef byval(%struct.Qureg) align 8 %1) #0 {
  %3 = alloca ptr, align 8
  %4 = alloca ptr, align 8
  call void @llvm.lifetime.start.p0(i64 8, ptr %3) #6
  %5 = getelementptr inbounds nuw %struct.Qureg, ptr %0, i32 0, i32 8
  %6 = getelementptr inbounds nuw %struct.ComplexArray, ptr %5, i32 0, i32 0
  %7 = load ptr, ptr %6, align 8, !tbaa !10
  store ptr %7, ptr %3, align 8, !tbaa !17
  call void @llvm.lifetime.start.p0(i64 8, ptr %4) #6
  %8 = getelementptr inbounds nuw %struct.Qureg, ptr %0, i32 0, i32 8
  %9 = getelementptr inbounds nuw %struct.ComplexArray, ptr %8, i32 0, i32 1
  %10 = load ptr, ptr %9, align 8, !tbaa !18
  store ptr %10, ptr %4, align 8, !tbaa !17
  %11 = getelementptr inbounds nuw %struct.Qureg, ptr %1, i32 0, i32 7
  %12 = getelementptr inbounds nuw %struct.ComplexArray, ptr %11, i32 0, i32 0
  %13 = load ptr, ptr %12, align 8, !tbaa !19
  %14 = getelementptr inbounds nuw %struct.Qureg, ptr %0, i32 0, i32 8
  %15 = getelementptr inbounds nuw %struct.ComplexArray, ptr %14, i32 0, i32 0
  store ptr %13, ptr %15, align 8, !tbaa !10
  %16 = getelementptr inbounds nuw %struct.Qureg, ptr %1, i32 0, i32 7
  %17 = getelementptr inbounds nuw %struct.ComplexArray, ptr %16, i32 0, i32 1
  %18 = load ptr, ptr %17, align 8, !tbaa !20
  %19 = getelementptr inbounds nuw %struct.Qureg, ptr %0, i32 0, i32 8
  %20 = getelementptr inbounds nuw %struct.ComplexArray, ptr %19, i32 0, i32 1
  store ptr %18, ptr %20, align 8, !tbaa !18
  call void @densmatr_initPureStateLocal(ptr noundef byval(%struct.Qureg) align 8 %0, ptr noundef byval(%struct.Qureg) align 8 %1)
  %21 = load ptr, ptr %3, align 8, !tbaa !17
  %22 = getelementptr inbounds nuw %struct.Qureg, ptr %0, i32 0, i32 8
  %23 = getelementptr inbounds nuw %struct.ComplexArray, ptr %22, i32 0, i32 0
  store ptr %21, ptr %23, align 8, !tbaa !10
  %24 = load ptr, ptr %4, align 8, !tbaa !17
  %25 = getelementptr inbounds nuw %struct.Qureg, ptr %0, i32 0, i32 8
  %26 = getelementptr inbounds nuw %struct.ComplexArray, ptr %25, i32 0, i32 1
  store ptr %24, ptr %26, align 8, !tbaa !18
  call void @llvm.lifetime.end.p0(i64 8, ptr %4) #6
  call void @llvm.lifetime.end.p0(i64 8, ptr %3) #6
  ret void
}