; Function Attrs: nounwind uwtable
define void @densmatr_initPureState(ptr noundef byval(%struct.Qureg) align 8 captures(none) initializes((56, 72)) %0, ptr noundef readonly byval(%struct.Qureg) align 8 captures(none) %1) local_unnamed_addr #0 {
  %3 = getelementptr inbounds nuw i8, ptr %0, i64 56
  %4 = getelementptr inbounds nuw i8, ptr %0, i64 64
  %5 = getelementptr inbounds nuw i8, ptr %1, i64 40
  %6 = load ptr, ptr %5, align 8, !tbaa !8
  store ptr %6, ptr %3, align 8, !tbaa !15
  %7 = getelementptr inbounds nuw i8, ptr %1, i64 48
  %8 = load ptr, ptr %7, align 8, !tbaa !16
  store ptr %8, ptr %4, align 8, !tbaa !17
  tail call void @densmatr_initPureStateLocal(ptr noundef nonnull byval(%struct.Qureg) align 8 %0, ptr noundef nonnull byval(%struct.Qureg) align 8 %1) #15
  ret void
}